target datalayout = "e-m:e-p270:32:32-p271:32:32-p272:64:64-i64:64-i128:128-f80:128-n8:16:32:64-S128"
target triple = "x86_64-pc-linux-gnu"

%struct.avifCodecEncodeOutput = type { %struct.avifEncodeSampleArray }
%struct.avifEncodeSampleArray = type { ptr, i32, i32, i32 }
%struct.avifEncodeSample = type { %struct.avifRWData, i32 }
%struct.avifRWData = type { ptr, i64 }

; Function Attrs: nounwind uwtable
define hidden void @avifCodecEncodeOutputDestroy(ptr noundef %0) #0 {
  %2 = alloca ptr, align 8
  %3 = alloca i32, align 4
  store ptr %0, ptr %2, align 8
  store i32 0, ptr %3, align 4
  br label %4

4:                                                ; preds = %20, %1
  %5 = load i32, ptr %3, align 4
  %6 = load ptr, ptr %2, align 8
  %7 = getelementptr inbounds nuw %struct.avifCodecEncodeOutput, ptr %6, i32 0, i32 0
  %8 = getelementptr inbounds nuw %struct.avifEncodeSampleArray, ptr %7, i32 0, i32 2
  %9 = load i32, ptr %8, align 4
  %10 = icmp ult i32 %5, %9
  br i1 %10, label %11, label %23

11:                                               ; preds = %4
  %12 = load ptr, ptr %2, align 8
  %13 = getelementptr inbounds nuw %struct.avifCodecEncodeOutput, ptr %12, i32 0, i32 0
  %14 = getelementptr inbounds nuw %struct.avifEncodeSampleArray, ptr %13, i32 0, i32 0
  %15 = load ptr, ptr %14, align 8
  %16 = load i32, ptr %3, align 4
  %17 = zext i32 %16 to i64
  %18 = getelementptr inbounds %struct.avifEncodeSample, ptr %15, i64 %17
  %19 = getelementptr inbounds nuw %struct.avifEncodeSample, ptr %18, i32 0, i32 0
  call void @avifRWDataFree(ptr noundef %19)
  br label %20

20:                                               ; preds = %11
  %21 = load i32, ptr %3, align 4
  %22 = add i32 %21, 1
  store i32 %22, ptr %3, align 4
  br label %4, !llvm.loop !6

23:                                               ; preds = %4
  %24 = load ptr, ptr %2, align 8
  %25 = getelementptr inbounds nuw %struct.avifCodecEncodeOutput, ptr %24, i32 0, i32 0
  call void @avifArrayDestroy(ptr noundef %25)
  %26 = load ptr, ptr %2, align 8
  call void @avifFree(ptr noundef %26)
  ret void
}

; Function Attrs: nounwind uwtable
define hidden ptr @avifCodecEncodeOutputCreate() #0 {
  %1 = alloca ptr, align 8
  %2 = alloca ptr, align 8
  %3 = call ptr @avifAlloc(i64 noundef 24)
  store ptr %3, ptr %2, align 8
  %4 = load ptr, ptr %2, align 8
  %5 = icmp eq ptr %4, null
  br i1 %5, label %6, label %7

6:                                                ; preds = %0
  store ptr null, ptr %1, align 8
  br label %17

7:                                                ; preds = %0
  %8 = load ptr, ptr %2, align 8
  call void @llvm.memset.p0.i64(ptr align 8 %8, i8 0, i64 24, i1 false)
  %9 = load ptr, ptr %2, align 8
  %10 = getelementptr inbounds nuw %struct.avifCodecEncodeOutput, ptr %9, i32 0, i32 0
  %11 = call i32 @avifArrayCreate(ptr noundef %10, i32 noundef 24, i32 noundef 1)
  %12 = icmp ne i32 %11, 0
  br i1 %12, label %15, label %13

13:                                               ; preds = %7
  %14 = load ptr, ptr %2, align 8
  call void @avifCodecEncodeOutputDestroy(ptr noundef %14)
  store ptr null, ptr %1, align 8
  br label %17

15:                                               ; preds = %7
  %16 = load ptr, ptr %2, align 8
  store ptr %16, ptr %1, align 8
  br label %17

17:                                               ; preds = %15, %13, %6
  %18 = load ptr, ptr %1, align 8
  ret ptr %18
}