; Function Attrs: nounwind uwtable
define hidden ptr @avifCodecEncodeOutputCreate() local_unnamed_addr #1 {
  %1 = tail call ptr @avifAlloc(i64 noundef 24) #13
  %2 = icmp eq ptr %1, null
  br i1 %2, label %13, label %3

3:                                                ; preds = %0
  tail call void @llvm.memset.p0.i64(ptr noundef nonnull align 8 dereferenceable(24) %1, i8 0, i64 24, i1 false)
  %4 = tail call i32 @avifArrayCreate(ptr noundef nonnull %1, i32 noundef 24, i32 noundef 1) #13
  %.not = icmp eq i32 %4, 0
  br i1 %.not, label %5, label %13

5:                                                ; preds = %3
  %6 = getelementptr inbounds nuw i8, ptr %1, i64 12
  %7 = load i32, ptr %6, align 4
  %.not.i = icmp eq i32 %7, 0
  br i1 %.not.i, label %avifCodecEncodeOutputDestroy.exit, label %.lr.ph.i

.lr.ph.i:                                         ; preds = %5, %.lr.ph.i
  %indvars.iv.i = phi i64 [ %indvars.iv.next.i, %.lr.ph.i ], [ 0, %5 ]
  %8 = load ptr, ptr %1, align 8
  %9 = getelementptr inbounds %struct.avifEncodeSample, ptr %8, i64 %indvars.iv.i
  tail call void @avifRWDataFree(ptr noundef %9) #13
  %indvars.iv.next.i = add nuw nsw i64 %indvars.iv.i, 1
  %10 = load i32, ptr %6, align 4
  %11 = zext i32 %10 to i64
  %12 = icmp ult i64 %indvars.iv.next.i, %11
  br i1 %12, label %.lr.ph.i, label %avifCodecEncodeOutputDestroy.exit, !llvm.loop !4

avifCodecEncodeOutputDestroy.exit:                ; preds = %.lr.ph.i, %5
  tail call void @avifArrayDestroy(ptr noundef nonnull %1) #13
  tail call void @avifFree(ptr noundef nonnull %1) #13
  br label %13

13:                                               ; preds = %3, %0, %avifCodecEncodeOutputDestroy.exit
  %.0 = phi ptr [ null, %avifCodecEncodeOutputDestroy.exit ], [ null, %0 ], [ %1, %3 ]
  ret ptr %.0
}